target datalayout = "e-m:e-p270:32:32-p271:32:32-p272:64:64-i64:64-i128:128-f80:128-n8:16:32:64-S128"
target triple = "x86_64-unknown-linux-gnu"

%class.btCollisionWorld = type <{ ptr, %class.btAlignedObjectArray, ptr, %struct.btDispatcherInfo, ptr, ptr, i8, [7 x i8] }>
%class.btAlignedObjectArray = type <{ %class.btAlignedAllocator, [3 x i8], i32, i32, [4 x i8], ptr, i8, [7 x i8] }>
%class.btAlignedAllocator = type { i8 }
%struct.btDispatcherInfo = type <{ float, i32, i32, float, i8, [7 x i8], ptr, i8, i8, i8, i8, float, i8, [3 x i8], float, i8, [7 x i8] }>
%class.CProfileSample = type { i8 }

@.str.6 = private unnamed_addr constant [34 x i8] c"performDiscreteCollisionDetection\00", align 1
@.str.7 = private unnamed_addr constant [26 x i8] c"dispatchAllCollisionPairs\00", align 1

; Function Attrs: mustprogress nounwind uwtable
define linkonce_odr dso_local noundef ptr @_ZN16btCollisionWorld13getDispatcherEv(ptr noundef nonnull align 8 dereferenceable(121) %this) #1 comdat align 2 {
entry:
  %this.addr = alloca ptr, align 8
  store ptr %this, ptr %this.addr, align 8
  %this1 = load ptr, ptr %this.addr, align 8
  %m_dispatcher1 = getelementptr inbounds %class.btCollisionWorld, ptr %this1, i32 0, i32 2
  %0 = load ptr, ptr %m_dispatcher1, align 8
  ret ptr %0
}

; Function Attrs: mustprogress nounwind uwtable
define linkonce_odr dso_local noundef nonnull align 8 dereferenceable(49) ptr @_ZN16btCollisionWorld15getDispatchInfoEv(ptr noundef nonnull align 8 dereferenceable(121) %this) #1 comdat align 2 {
entry:
  %this.addr = alloca ptr, align 8
  store ptr %this, ptr %this.addr, align 8
  %this1 = load ptr, ptr %this.addr, align 8
  %m_dispatchInfo = getelementptr inbounds %class.btCollisionWorld, ptr %this1, i32 0, i32 3
  ret ptr %m_dispatchInfo
}

; Function Attrs: mustprogress uwtable
define dso_local void @_ZN16btCollisionWorld33performDiscreteCollisionDetectionEv(ptr noundef nonnull align 8 dereferenceable(121) %this) unnamed_addr #2 align 2 personality ptr @__gxx_personality_v0 {
entry:
  %this.addr = alloca ptr, align 8
  %__profile = alloca %class.CProfileSample, align 1
  %dispatchInfo = alloca ptr, align 8
  %exn.slot = alloca ptr, align 8
  %ehselector.slot = alloca i32, align 4
  %dispatcher = alloca ptr, align 8
  %__profile8 = alloca %class.CProfileSample, align 1
  store ptr %this, ptr %this.addr, align 8
  %this1 = load ptr, ptr %this.addr, align 8
  call void @_ZN14CProfileSampleC1EPKc(ptr noundef nonnull align 1 dereferenceable(1) %__profile, ptr noundef @.str.6)
  %call = invoke noundef nonnull align 8 dereferenceable(49) ptr @_ZN16btCollisionWorld15getDispatchInfoEv(ptr noundef nonnull align 8 dereferenceable(121) %this1)
          to label %invoke.cont unwind label %lpad

invoke.cont:                                      ; preds = %entry
  store ptr %call, ptr %dispatchInfo, align 8
  %vtable = load ptr, ptr %this1, align 8
  %vfn = getelementptr inbounds ptr, ptr %vtable, i64 2
  %0 = load ptr, ptr %vfn, align 8
  invoke void %0(ptr noundef nonnull align 8 dereferenceable(121) %this1)
          to label %invoke.cont2 unwind label %lpad

invoke.cont2:                                     ; preds = %invoke.cont
  %vtable3 = load ptr, ptr %this1, align 8
  %vfn4 = getelementptr inbounds ptr, ptr %vtable3, i64 3
  %1 = load ptr, ptr %vfn4, align 8
  invoke void %1(ptr noundef nonnull align 8 dereferenceable(121) %this1)
          to label %invoke.cont5 unwind label %lpad

invoke.cont5:                                     ; preds = %invoke.cont2
  %call7 = invoke noundef ptr @_ZN16btCollisionWorld13getDispatcherEv(ptr noundef nonnull align 8 dereferenceable(121) %this1)
          to label %invoke.cont6 unwind label %lpad

invoke.cont6:                                     ; preds = %invoke.cont5
  store ptr %call7, ptr %dispatcher, align 8
  invoke void @_ZN14CProfileSampleC1EPKc(ptr noundef nonnull align 1 dereferenceable(1) %__profile8, ptr noundef @.str.7)
          to label %invoke.cont9 unwind label %lpad

invoke.cont9:                                     ; preds = %invoke.cont6
  %2 = load ptr, ptr %dispatcher, align 8
  %tobool = icmp ne ptr %2, null
  br i1 %tobool, label %if.then, label %if.end

if.then:                                          ; preds = %invoke.cont9
  %3 = load ptr, ptr %dispatcher, align 8
  %m_broadphasePairCache = getelementptr inbounds %class.btCollisionWorld, ptr %this1, i32 0, i32 4
  %4 = load ptr, ptr %m_broadphasePairCache, align 8
  %vtable10 = load ptr, ptr %4, align 8
  %vfn11 = getelementptr inbounds ptr, ptr %vtable10, i64 9
  %5 = load ptr, ptr %vfn11, align 8
  %call14 = invoke noundef ptr %5(ptr noundef nonnull align 8 dereferenceable(8) %4)
          to label %invoke.cont13 unwind label %lpad12

invoke.cont13:                                    ; preds = %if.then
  %6 = load ptr, ptr %dispatchInfo, align 8
  %m_dispatcher1 = getelementptr inbounds %class.btCollisionWorld, ptr %this1, i32 0, i32 2
  %7 = load ptr, ptr %m_dispatcher1, align 8
  %vtable15 = load ptr, ptr %3, align 8
  %vfn16 = getelementptr inbounds ptr, ptr %vtable15, i64 8
  %8 = load ptr, ptr %vfn16, align 8
  invoke void %8(ptr noundef nonnull align 8 dereferenceable(8) %3, ptr noundef %call14, ptr noundef nonnull align 8 dereferenceable(49) %6, ptr noundef %7)
          to label %invoke.cont17 unwind label %lpad12

invoke.cont17:                                    ; preds = %invoke.cont13
  br label %if.end

lpad:                                             ; preds = %invoke.cont6, %invoke.cont5, %invoke.cont2, %invoke.cont, %entry
  %9 = landingpad { ptr, i32 }
          cleanup
  %10 = extractvalue { ptr, i32 } %9, 0
  store ptr %10, ptr %exn.slot, align 8
  %11 = extractvalue { ptr, i32 } %9, 1
  store i32 %11, ptr %ehselector.slot, align 4
  br label %ehcleanup

lpad12:                                           ; preds = %invoke.cont13, %if.then
  %12 = landingpad { ptr, i32 }
          cleanup
  %13 = extractvalue { ptr, i32 } %12, 0
  store ptr %13, ptr %exn.slot, align 8
  %14 = extractvalue { ptr, i32 } %12, 1
  store i32 %14, ptr %ehselector.slot, align 4
  call void @_ZN14CProfileSampleD1Ev(ptr noundef nonnull align 1 dereferenceable(1) %__profile8) #12
  br label %ehcleanup

if.end:                                           ; preds = %invoke.cont17, %invoke.cont9
  call void @_ZN14CProfileSampleD1Ev(ptr noundef nonnull align 1 dereferenceable(1) %__profile8) #12
  call void @_ZN14CProfileSampleD1Ev(ptr noundef nonnull align 1 dereferenceable(1) %__profile) #12
  ret void

ehcleanup:                                        ; preds = %lpad12, %lpad
  call void @_ZN14CProfileSampleD1Ev(ptr noundef nonnull align 1 dereferenceable(1) %__profile) #12
  br label %eh.resume

eh.resume:                                        ; preds = %ehcleanup
  %exn = load ptr, ptr %exn.slot, align 8
  %sel = load i32, ptr %ehselector.slot, align 4
  %lpad.val = insertvalue { ptr, i32 } poison, ptr %exn, 0
  %lpad.val18 = insertvalue { ptr, i32 } %lpad.val, i32 %sel, 1
  resume { ptr, i32 } %lpad.val18
}