; Function Attrs: mustprogress uwtable
define dso_local void @_ZN16btCollisionWorld33performDiscreteCollisionDetectionEv(ptr noundef nonnull align 8 dereferenceable(121) %this) unnamed_addr #4 align 2 personality ptr @__gxx_personality_v0 {
entry:
  %__profile = alloca %class.CProfileSample, align 1
  %__profile8 = alloca %class.CProfileSample, align 1
  call void @_ZN14CProfileSampleC1EPKc(ptr noundef nonnull align 1 dereferenceable(1) %__profile, ptr noundef nonnull @.str.6)
  %m_dispatchInfo.i = getelementptr inbounds i8, ptr %this, i64 48
  %vtable = load ptr, ptr %this, align 8
  %vfn = getelementptr inbounds i8, ptr %vtable, i64 16
  %0 = load ptr, ptr %vfn, align 8
  invoke void %0(ptr noundef nonnull align 8 dereferenceable(121) %this)
          to label %invoke.cont2 unwind label %lpad

invoke.cont2:                                     ; preds = %entry
  %vtable3 = load ptr, ptr %this, align 8
  %vfn4 = getelementptr inbounds i8, ptr %vtable3, i64 24
  %1 = load ptr, ptr %vfn4, align 8
  invoke void %1(ptr noundef nonnull align 8 dereferenceable(121) %this)
          to label %invoke.cont5 unwind label %lpad

invoke.cont5:                                     ; preds = %invoke.cont2
  %m_dispatcher1.i = getelementptr inbounds i8, ptr %this, i64 40
  %2 = load ptr, ptr %m_dispatcher1.i, align 8
  invoke void @_ZN14CProfileSampleC1EPKc(ptr noundef nonnull align 1 dereferenceable(1) %__profile8, ptr noundef nonnull @.str.7)
          to label %invoke.cont9 unwind label %lpad

invoke.cont9:                                     ; preds = %invoke.cont5
  %tobool.not = icmp eq ptr %2, null
  br i1 %tobool.not, label %if.end, label %if.then

if.then:                                          ; preds = %invoke.cont9
  %m_broadphasePairCache = getelementptr inbounds i8, ptr %this, i64 104
  %3 = load ptr, ptr %m_broadphasePairCache, align 8
  %vtable10 = load ptr, ptr %3, align 8
  %vfn11 = getelementptr inbounds i8, ptr %vtable10, i64 72
  %4 = load ptr, ptr %vfn11, align 8
  %call14 = invoke noundef ptr %4(ptr noundef nonnull align 8 dereferenceable(8) %3)
          to label %invoke.cont13 unwind label %lpad12

invoke.cont13:                                    ; preds = %if.then
  %5 = load ptr, ptr %m_dispatcher1.i, align 8
  %vtable15 = load ptr, ptr %2, align 8
  %vfn16 = getelementptr inbounds i8, ptr %vtable15, i64 64
  %6 = load ptr, ptr %vfn16, align 8
  invoke void %6(ptr noundef nonnull align 8 dereferenceable(8) %2, ptr noundef %call14, ptr noundef nonnull align 8 dereferenceable(49) %m_dispatchInfo.i, ptr noundef %5)
          to label %if.end unwind label %lpad12

lpad:                                             ; preds = %invoke.cont5, %invoke.cont2, %entry
  %7 = landingpad { ptr, i32 }
          cleanup
  br label %ehcleanup

lpad12:                                           ; preds = %invoke.cont13, %if.then
  %8 = landingpad { ptr, i32 }
          cleanup
  call void @_ZN14CProfileSampleD1Ev(ptr noundef nonnull align 1 dereferenceable(1) %__profile8) #19
  br label %ehcleanup

if.end:                                           ; preds = %invoke.cont13, %invoke.cont9
  call void @_ZN14CProfileSampleD1Ev(ptr noundef nonnull align 1 dereferenceable(1) %__profile8) #19
  call void @_ZN14CProfileSampleD1Ev(ptr noundef nonnull align 1 dereferenceable(1) %__profile) #19
  ret void

ehcleanup:                                        ; preds = %lpad12, %lpad
  %.pn = phi { ptr, i32 } [ %8, %lpad12 ], [ %7, %lpad ]
  call void @_ZN14CProfileSampleD1Ev(ptr noundef nonnull align 1 dereferenceable(1) %__profile) #19
  resume { ptr, i32 } %.pn
}